target datalayout = "e-m:e-p270:32:32-p271:32:32-p272:64:64-i64:64-i128:128-f80:128-n8:16:32:64-S128"
target triple = "x86_64-unknown-linux-gnu"

%"struct.absl::container_internal::FindInfo" = type { i64, i64 }
%"class.absl::container_internal::probe_seq" = type { i64, i64, i64 }
%"struct.absl::container_internal::GroupSse2Impl" = type { <2 x i64> }
%"class.absl::container_internal::NonIterableBitMask" = type { i16 }
%"class.absl::container_internal::CommonFields" = type { ptr, ptr, i64, i64 }

; Function Attrs: noreturn nounwind uwtable
define linkonce_odr hidden void @__clang_call_terminate(ptr noundef %0) #6 comdat {
  %2 = call ptr @__cxa_begin_catch(ptr %0) #10
  call void @_ZSt9terminatev() #11
  unreachable
}

; Function Attrs: mustprogress nounwind uwtable
define linkonce_odr dso_local noundef i64 @_ZN4absl18container_internal12PerTableSaltEPKNS0_6ctrl_tE(ptr noundef %ctrl) #1 comdat {
entry:
  %ctrl.addr = alloca ptr, align 8
  store ptr %ctrl, ptr %ctrl.addr, align 8
  %0 = load ptr, ptr %ctrl.addr, align 8
  %1 = ptrtoint ptr %0 to i64
  %shr = lshr i64 %1, 12
  ret i64 %shr
}

; Function Attrs: mustprogress nounwind uwtable
define linkonce_odr dso_local noundef i32 @_ZN4absl11countr_zeroItEENSt9enable_ifIXsr3std11is_unsignedIT_EE5valueEiE4typeES2_(i16 noundef zeroext %x) #1 comdat personality ptr @__gxx_personality_v0 {
entry:
  %x.addr.i1 = alloca i16, align 2
  %x.addr.i = alloca i16, align 2
  %x.addr = alloca i16, align 2
  store i16 %x, ptr %x.addr, align 2
  %0 = load i16, ptr %x.addr, align 2
  store i16 %0, ptr %x.addr.i, align 2
  %1 = load i16, ptr %x.addr.i, align 2
  %conv.i = zext i16 %1 to i32
  %cmp.i = icmp eq i32 %conv.i, 0
  br i1 %cmp.i, label %cond.true.i, label %cond.false.i

cond.true.i:                                      ; preds = %entry
  br label %_ZN4absl16numeric_internal19CountTrailingZeroesItEEiT_.exit

cond.false.i:                                     ; preds = %entry
  %2 = load i16, ptr %x.addr.i, align 2
  store i16 %2, ptr %x.addr.i1, align 2
  %3 = load i16, ptr %x.addr.i1, align 2
  %4 = call i16 @llvm.cttz.i16(i16 %3, i1 true)
  %cast.i = sext i16 %4 to i32
  br label %invoke.cont.i

invoke.cont.i:                                    ; preds = %cond.false.i
  br label %_ZN4absl16numeric_internal19CountTrailingZeroesItEEiT_.exit

terminate.lpad.i:                                 ; No predecessors!
  %5 = landingpad { ptr, i32 }
          catch ptr null
  %6 = extractvalue { ptr, i32 } %5, 0
  call void @__clang_call_terminate(ptr %6) #11
  unreachable

_ZN4absl16numeric_internal19CountTrailingZeroesItEEiT_.exit: ; preds = %invoke.cont.i, %cond.true.i
  %cond.i = phi i32 [ 16, %cond.true.i ], [ %cast.i, %invoke.cont.i ]
  ret i32 %cond.i
}

; Function Attrs: mustprogress nounwind uwtable
define linkonce_odr dso_local void @_ZN4absl18container_internal9probe_seqILm16EEC2Emm(ptr noundef nonnull align 8 dereferenceable(24) %this, i64 noundef %hash, i64 noundef %mask) unnamed_addr #1 comdat align 2 {
entry:
  %this.addr = alloca ptr, align 8
  %hash.addr = alloca i64, align 8
  %mask.addr = alloca i64, align 8
  store ptr %this, ptr %this.addr, align 8
  store i64 %hash, ptr %hash.addr, align 8
  store i64 %mask, ptr %mask.addr, align 8
  %this1 = load ptr, ptr %this.addr, align 8
  %index_ = getelementptr inbounds %"class.absl::container_internal::probe_seq", ptr %this1, i32 0, i32 2
  store i64 0, ptr %index_, align 8
  %0 = load i64, ptr %mask.addr, align 8
  %mask_ = getelementptr inbounds %"class.absl::container_internal::probe_seq", ptr %this1, i32 0, i32 0
  store i64 %0, ptr %mask_, align 8
  %1 = load i64, ptr %hash.addr, align 8
  %mask_2 = getelementptr inbounds %"class.absl::container_internal::probe_seq", ptr %this1, i32 0, i32 0
  %2 = load i64, ptr %mask_2, align 8
  %and = and i64 %1, %2
  %offset_ = getelementptr inbounds %"class.absl::container_internal::probe_seq", ptr %this1, i32 0, i32 1
  store i64 %and, ptr %offset_, align 8
  ret void
}

; Function Attrs: mustprogress uwtable
define linkonce_odr dso_local noundef i64 @_ZN4absl18container_internal2H1EmPKNS0_6ctrl_tE(i64 noundef %hash, ptr noundef %ctrl) #0 comdat {
entry:
  %hash.addr = alloca i64, align 8
  %ctrl.addr = alloca ptr, align 8
  store i64 %hash, ptr %hash.addr, align 8
  store ptr %ctrl, ptr %ctrl.addr, align 8
  %0 = load i64, ptr %hash.addr, align 8
  %shr = lshr i64 %0, 7
  %1 = load ptr, ptr %ctrl.addr, align 8
  %call = call noundef i64 @_ZN4absl18container_internal12PerTableSaltEPKNS0_6ctrl_tE(ptr noundef %1)
  %xor = xor i64 %shr, %call
  ret i64 %xor
}

; Function Attrs: mustprogress nounwind uwtable
define linkonce_odr dso_local noundef i32 @_ZN4absl18container_internal13TrailingZerosItEEjT_(i16 noundef zeroext %x) #1 comdat {
entry:
  %x.addr = alloca i16, align 2
  store i16 %x, ptr %x.addr, align 2
  %0 = load i16, ptr %x.addr, align 2
  %conv = zext i16 %0 to i32
  %cmp = icmp ne i32 %conv, 0
  call void @llvm.assume(i1 %cmp)
  %1 = load i16, ptr %x.addr, align 2
  %call = call noundef i32 @_ZN4absl11countr_zeroItEENSt9enable_ifIXsr3std11is_unsignedIT_EE5valueEiE4typeES2_(i16 noundef zeroext %1) #10
  ret i32 %call
}

; Function Attrs: mustprogress nounwind uwtable
define linkonce_odr dso_local void @_ZN4absl18container_internal18NonIterableBitMaskItLi16ELi0EEC2Et(ptr noundef nonnull align 2 dereferenceable(2) %this, i16 noundef zeroext %mask) unnamed_addr #1 comdat align 2 {
entry:
  %this.addr = alloca ptr, align 8
  %mask.addr = alloca i16, align 2
  store ptr %this, ptr %this.addr, align 8
  store i16 %mask, ptr %mask.addr, align 2
  %this1 = load ptr, ptr %this.addr, align 8
  %mask_ = getelementptr inbounds %"class.absl::container_internal::NonIterableBitMask", ptr %this1, i32 0, i32 0
  %0 = load i16, ptr %mask.addr, align 2
  store i16 %0, ptr %mask_, align 2
  ret void
}

; Function Attrs: mustprogress uwtable
define linkonce_odr dso_local noundef <2 x i64> @_ZN4absl18container_internal20_mm_cmpgt_epi8_fixedEDv2_xS1_(<2 x i64> noundef %a, <2 x i64> noundef %b) #2 comdat {
entry:
  %__a.addr.i = alloca <2 x i64>, align 16
  %__b.addr.i = alloca <2 x i64>, align 16
  %a.addr = alloca <2 x i64>, align 16
  %b.addr = alloca <2 x i64>, align 16
  store <2 x i64> %a, ptr %a.addr, align 16
  store <2 x i64> %b, ptr %b.addr, align 16
  %0 = load <2 x i64>, ptr %a.addr, align 16
  %1 = load <2 x i64>, ptr %b.addr, align 16
  store <2 x i64> %0, ptr %__a.addr.i, align 16
  store <2 x i64> %1, ptr %__b.addr.i, align 16
  %2 = load <2 x i64>, ptr %__a.addr.i, align 16
  %3 = bitcast <2 x i64> %2 to <16 x i8>
  %4 = load <2 x i64>, ptr %__b.addr.i, align 16
  %5 = bitcast <2 x i64> %4 to <16 x i8>
  %cmp.i = icmp sgt <16 x i8> %3, %5
  %sext.i = sext <16 x i1> %cmp.i to <16 x i8>
  %6 = bitcast <16 x i8> %sext.i to <2 x i64>
  ret <2 x i64> %6
}

; Function Attrs: mustprogress uwtable
define linkonce_odr dso_local void @_ZN4absl18container_internal5probeEPKNS0_6ctrl_tEmm(ptr noalias sret(%"class.absl::container_internal::probe_seq") align 8 %agg.result, ptr noundef %ctrl, i64 noundef %capacity, i64 noundef %hash) #0 comdat {
entry:
  %ctrl.addr = alloca ptr, align 8
  %capacity.addr = alloca i64, align 8
  %hash.addr = alloca i64, align 8
  store ptr %ctrl, ptr %ctrl.addr, align 8
  store i64 %capacity, ptr %capacity.addr, align 8
  store i64 %hash, ptr %hash.addr, align 8
  %0 = load i64, ptr %hash.addr, align 8
  %1 = load ptr, ptr %ctrl.addr, align 8
  %call = call noundef i64 @_ZN4absl18container_internal2H1EmPKNS0_6ctrl_tE(i64 noundef %0, ptr noundef %1)
  %2 = load i64, ptr %capacity.addr, align 8
  call void @_ZN4absl18container_internal9probe_seqILm16EEC2Emm(ptr noundef nonnull align 8 dereferenceable(24) %agg.result, i64 noundef %call, i64 noundef %2)
  ret void
}

; Function Attrs: mustprogress nounwind uwtable
define linkonce_odr dso_local noundef i64 @_ZNK4absl18container_internal12CommonFields8capacityEv(ptr noundef nonnull align 8 dereferenceable(32) %this) #1 comdat align 2 {
entry:
  %this.addr = alloca ptr, align 8
  store ptr %this, ptr %this.addr, align 8
  %this1 = load ptr, ptr %this.addr, align 8
  %capacity_ = getelementptr inbounds %"class.absl::container_internal::CommonFields", ptr %this1, i32 0, i32 2
  %0 = load i64, ptr %capacity_, align 8
  ret i64 %0
}

; Function Attrs: mustprogress nounwind uwtable
define linkonce_odr dso_local void @_ZN4absl18container_internal9probe_seqILm16EE4nextEv(ptr noundef nonnull align 8 dereferenceable(24) %this) #1 comdat align 2 {
entry:
  %this.addr = alloca ptr, align 8
  store ptr %this, ptr %this.addr, align 8
  %this1 = load ptr, ptr %this.addr, align 8
  %index_ = getelementptr inbounds %"class.absl::container_internal::probe_seq", ptr %this1, i32 0, i32 2
  %0 = load i64, ptr %index_, align 8
  %add = add i64 %0, 16
  store i64 %add, ptr %index_, align 8
  %index_2 = getelementptr inbounds %"class.absl::container_internal::probe_seq", ptr %this1, i32 0, i32 2
  %1 = load i64, ptr %index_2, align 8
  %offset_ = getelementptr inbounds %"class.absl::container_internal::probe_seq", ptr %this1, i32 0, i32 1
  %2 = load i64, ptr %offset_, align 8
  %add3 = add i64 %2, %1
  store i64 %add3, ptr %offset_, align 8
  %mask_ = getelementptr inbounds %"class.absl::container_internal::probe_seq", ptr %this1, i32 0, i32 0
  %3 = load i64, ptr %mask_, align 8
  %offset_4 = getelementptr inbounds %"class.absl::container_internal::probe_seq", ptr %this1, i32 0, i32 1
  %4 = load i64, ptr %offset_4, align 8
  %and = and i64 %4, %3
  store i64 %and, ptr %offset_4, align 8
  ret void
}

; Function Attrs: mustprogress nounwind uwtable
define linkonce_odr dso_local noundef i64 @_ZNK4absl18container_internal9probe_seqILm16EE5indexEv(ptr noundef nonnull align 8 dereferenceable(24) %this) #1 comdat align 2 {
entry:
  %this.addr = alloca ptr, align 8
  store ptr %this, ptr %this.addr, align 8
  %this1 = load ptr, ptr %this.addr, align 8
  %index_ = getelementptr inbounds %"class.absl::container_internal::probe_seq", ptr %this1, i32 0, i32 2
  %0 = load i64, ptr %index_, align 8
  ret i64 %0
}

; Function Attrs: mustprogress nounwind uwtable
define linkonce_odr dso_local noundef i64 @_ZNK4absl18container_internal9probe_seqILm16EE6offsetEm(ptr noundef nonnull align 8 dereferenceable(24) %this, i64 noundef %i) #1 comdat align 2 {
entry:
  %this.addr = alloca ptr, align 8
  %i.addr = alloca i64, align 8
  store ptr %this, ptr %this.addr, align 8
  store i64 %i, ptr %i.addr, align 8
  %this1 = load ptr, ptr %this.addr, align 8
  %offset_ = getelementptr inbounds %"class.absl::container_internal::probe_seq", ptr %this1, i32 0, i32 1
  %0 = load i64, ptr %offset_, align 8
  %1 = load i64, ptr %i.addr, align 8
  %add = add i64 %0, %1
  %mask_ = getelementptr inbounds %"class.absl::container_internal::probe_seq", ptr %this1, i32 0, i32 0
  %2 = load i64, ptr %mask_, align 8
  %and = and i64 %add, %2
  ret i64 %and
}

; Function Attrs: mustprogress uwtable
define linkonce_odr dso_local noundef i32 @_ZNK4absl18container_internal18NonIterableBitMaskItLi16ELi0EE12LowestBitSetEv(ptr noundef nonnull align 2 dereferenceable(2) %this) #0 comdat align 2 {
entry:
  %this.addr = alloca ptr, align 8
  store ptr %this, ptr %this.addr, align 8
  %this1 = load ptr, ptr %this.addr, align 8
  %mask_ = getelementptr inbounds %"class.absl::container_internal::NonIterableBitMask", ptr %this1, i32 0, i32 0
  %0 = load i16, ptr %mask_, align 2
  %call = call noundef i32 @_ZN4absl18container_internal13TrailingZerosItEEjT_(i16 noundef zeroext %0)
  %shr = lshr i32 %call, 0
  ret i32 %shr
}

; Function Attrs: mustprogress nounwind uwtable
define linkonce_odr dso_local noundef zeroext i1 @_ZNK4absl18container_internal18NonIterableBitMaskItLi16ELi0EEcvbEv(ptr noundef nonnull align 2 dereferenceable(2) %this) #1 comdat align 2 {
entry:
  %this.addr = alloca ptr, align 8
  store ptr %this, ptr %this.addr, align 8
  %this1 = load ptr, ptr %this.addr, align 8
  %mask_ = getelementptr inbounds %"class.absl::container_internal::NonIterableBitMask", ptr %this1, i32 0, i32 0
  %0 = load i16, ptr %mask_, align 2
  %conv = zext i16 %0 to i32
  %cmp = icmp ne i32 %conv, 0
  ret i1 %cmp
}

; Function Attrs: mustprogress uwtable
define linkonce_odr dso_local i16 @_ZNK4absl18container_internal13GroupSse2Impl18MaskEmptyOrDeletedEv(ptr noundef nonnull align 16 dereferenceable(16) %this) #2 comdat align 2 {
entry:
  %__b15.addr.i = alloca i8, align 1
  %__b14.addr.i = alloca i8, align 1
  %__b13.addr.i = alloca i8, align 1
  %__b12.addr.i = alloca i8, align 1
  %__b11.addr.i = alloca i8, align 1
  %__b10.addr.i = alloca i8, align 1
  %__b9.addr.i = alloca i8, align 1
  %__b8.addr.i = alloca i8, align 1
  %__b7.addr.i = alloca i8, align 1
  %__b6.addr.i = alloca i8, align 1
  %__b5.addr.i = alloca i8, align 1
  %__b4.addr.i = alloca i8, align 1
  %__b3.addr.i = alloca i8, align 1
  %__b2.addr.i = alloca i8, align 1
  %__b1.addr.i = alloca i8, align 1
  %__b0.addr.i = alloca i8, align 1
  %.compoundliteral.i = alloca <16 x i8>, align 16
  %__a.addr.i = alloca <2 x i64>, align 16
  %__b.addr.i = alloca i8, align 1
  %retval = alloca %"class.absl::container_internal::NonIterableBitMask", align 2
  %this.addr = alloca ptr, align 8
  %special = alloca <2 x i64>, align 16
  store ptr %this, ptr %this.addr, align 8
  %this1 = load ptr, ptr %this.addr, align 8
  store i8 -1, ptr %__b.addr.i, align 1
  %0 = load i8, ptr %__b.addr.i, align 1
  %1 = load i8, ptr %__b.addr.i, align 1
  %2 = load i8, ptr %__b.addr.i, align 1
  %3 = load i8, ptr %__b.addr.i, align 1
  %4 = load i8, ptr %__b.addr.i, align 1
  %5 = load i8, ptr %__b.addr.i, align 1
  %6 = load i8, ptr %__b.addr.i, align 1
  %7 = load i8, ptr %__b.addr.i, align 1
  %8 = load i8, ptr %__b.addr.i, align 1
  %9 = load i8, ptr %__b.addr.i, align 1
  %10 = load i8, ptr %__b.addr.i, align 1
  %11 = load i8, ptr %__b.addr.i, align 1
  %12 = load i8, ptr %__b.addr.i, align 1
  %13 = load i8, ptr %__b.addr.i, align 1
  %14 = load i8, ptr %__b.addr.i, align 1
  %15 = load i8, ptr %__b.addr.i, align 1
  store i8 %0, ptr %__b15.addr.i, align 1
  store i8 %1, ptr %__b14.addr.i, align 1
  store i8 %2, ptr %__b13.addr.i, align 1
  store i8 %3, ptr %__b12.addr.i, align 1
  store i8 %4, ptr %__b11.addr.i, align 1
  store i8 %5, ptr %__b10.addr.i, align 1
  store i8 %6, ptr %__b9.addr.i, align 1
  store i8 %7, ptr %__b8.addr.i, align 1
  store i8 %8, ptr %__b7.addr.i, align 1
  store i8 %9, ptr %__b6.addr.i, align 1
  store i8 %10, ptr %__b5.addr.i, align 1
  store i8 %11, ptr %__b4.addr.i, align 1
  store i8 %12, ptr %__b3.addr.i, align 1
  store i8 %13, ptr %__b2.addr.i, align 1
  store i8 %14, ptr %__b1.addr.i, align 1
  store i8 %15, ptr %__b0.addr.i, align 1
  %16 = load i8, ptr %__b0.addr.i, align 1
  %vecinit.i = insertelement <16 x i8> undef, i8 %16, i32 0
  %17 = load i8, ptr %__b1.addr.i, align 1
  %vecinit1.i = insertelement <16 x i8> %vecinit.i, i8 %17, i32 1
  %18 = load i8, ptr %__b2.addr.i, align 1
  %vecinit2.i = insertelement <16 x i8> %vecinit1.i, i8 %18, i32 2
  %19 = load i8, ptr %__b3.addr.i, align 1
  %vecinit3.i = insertelement <16 x i8> %vecinit2.i, i8 %19, i32 3
  %20 = load i8, ptr %__b4.addr.i, align 1
  %vecinit4.i = insertelement <16 x i8> %vecinit3.i, i8 %20, i32 4
  %21 = load i8, ptr %__b5.addr.i, align 1
  %vecinit5.i = insertelement <16 x i8> %vecinit4.i, i8 %21, i32 5
  %22 = load i8, ptr %__b6.addr.i, align 1
  %vecinit6.i = insertelement <16 x i8> %vecinit5.i, i8 %22, i32 6
  %23 = load i8, ptr %__b7.addr.i, align 1
  %vecinit7.i = insertelement <16 x i8> %vecinit6.i, i8 %23, i32 7
  %24 = load i8, ptr %__b8.addr.i, align 1
  %vecinit8.i = insertelement <16 x i8> %vecinit7.i, i8 %24, i32 8
  %25 = load i8, ptr %__b9.addr.i, align 1
  %vecinit9.i = insertelement <16 x i8> %vecinit8.i, i8 %25, i32 9
  %26 = load i8, ptr %__b10.addr.i, align 1
  %vecinit10.i = insertelement <16 x i8> %vecinit9.i, i8 %26, i32 10
  %27 = load i8, ptr %__b11.addr.i, align 1
  %vecinit11.i = insertelement <16 x i8> %vecinit10.i, i8 %27, i32 11
  %28 = load i8, ptr %__b12.addr.i, align 1
  %vecinit12.i = insertelement <16 x i8> %vecinit11.i, i8 %28, i32 12
  %29 = load i8, ptr %__b13.addr.i, align 1
  %vecinit13.i = insertelement <16 x i8> %vecinit12.i, i8 %29, i32 13
  %30 = load i8, ptr %__b14.addr.i, align 1
  %vecinit14.i = insertelement <16 x i8> %vecinit13.i, i8 %30, i32 14
  %31 = load i8, ptr %__b15.addr.i, align 1
  %vecinit15.i = insertelement <16 x i8> %vecinit14.i, i8 %31, i32 15
  store <16 x i8> %vecinit15.i, ptr %.compoundliteral.i, align 16
  %32 = load <16 x i8>, ptr %.compoundliteral.i, align 16
  %33 = bitcast <16 x i8> %32 to <2 x i64>
  store <2 x i64> %33, ptr %special, align 16
  %34 = load <2 x i64>, ptr %special, align 16
  %ctrl = getelementptr inbounds %"struct.absl::container_internal::GroupSse2Impl", ptr %this1, i32 0, i32 0
  %35 = load <2 x i64>, ptr %ctrl, align 16
  %call2 = call noundef <2 x i64> @_ZN4absl18container_internal20_mm_cmpgt_epi8_fixedEDv2_xS1_(<2 x i64> noundef %34, <2 x i64> noundef %35)
  store <2 x i64> %call2, ptr %__a.addr.i, align 16
  %36 = load <2 x i64>, ptr %__a.addr.i, align 16
  %37 = bitcast <2 x i64> %36 to <16 x i8>
  %38 = call noundef i32 @llvm.x86.sse2.pmovmskb.128(<16 x i8> %37)
  %conv = trunc i32 %38 to i16
  call void @_ZN4absl18container_internal18NonIterableBitMaskItLi16ELi0EEC2Et(ptr noundef nonnull align 2 dereferenceable(2) %retval, i16 noundef zeroext %conv)
  %coerce.dive = getelementptr inbounds %"class.absl::container_internal::NonIterableBitMask", ptr %retval, i32 0, i32 0
  %39 = load i16, ptr %coerce.dive, align 2
  ret i16 %39
}

; Function Attrs: mustprogress uwtable
define linkonce_odr dso_local void @_ZN4absl18container_internal13GroupSse2ImplC2EPKNS0_6ctrl_tE(ptr noundef nonnull align 16 dereferenceable(16) %this, ptr noundef %pos) unnamed_addr #2 comdat align 2 {
entry:
  %__p.addr.i = alloca ptr, align 8
  %this.addr = alloca ptr, align 8
  %pos.addr = alloca ptr, align 8
  store ptr %this, ptr %this.addr, align 8
  store ptr %pos, ptr %pos.addr, align 8
  %this1 = load ptr, ptr %this.addr, align 8
  %0 = load ptr, ptr %pos.addr, align 8
  store ptr %0, ptr %__p.addr.i, align 8
  %1 = load ptr, ptr %__p.addr.i, align 8
  %2 = load <2 x i64>, ptr %1, align 1
  %ctrl = getelementptr inbounds %"struct.absl::container_internal::GroupSse2Impl", ptr %this1, i32 0, i32 0
  store <2 x i64> %2, ptr %ctrl, align 16
  ret void
}

; Function Attrs: mustprogress nounwind uwtable
define linkonce_odr dso_local noundef i64 @_ZNK4absl18container_internal9probe_seqILm16EE6offsetEv(ptr noundef nonnull align 8 dereferenceable(24) %this) #1 comdat align 2 {
entry:
  %this.addr = alloca ptr, align 8
  store ptr %this, ptr %this.addr, align 8
  %this1 = load ptr, ptr %this.addr, align 8
  %offset_ = getelementptr inbounds %"class.absl::container_internal::probe_seq", ptr %this1, i32 0, i32 1
  %0 = load i64, ptr %offset_, align 8
  ret i64 %0
}

; Function Attrs: mustprogress nounwind uwtable
define linkonce_odr dso_local noundef ptr @_ZNK4absl18container_internal12CommonFields7controlEv(ptr noundef nonnull align 8 dereferenceable(32) %this) #1 comdat align 2 {
entry:
  %this.addr = alloca ptr, align 8
  store ptr %this, ptr %this.addr, align 8
  %this1 = load ptr, ptr %this.addr, align 8
  %control_ = getelementptr inbounds %"class.absl::container_internal::CommonFields", ptr %this1, i32 0, i32 0
  %0 = load ptr, ptr %control_, align 8
  ret ptr %0
}

; Function Attrs: mustprogress uwtable
define linkonce_odr dso_local void @_ZN4absl18container_internal5probeERKNS0_12CommonFieldsEm(ptr noalias sret(%"class.absl::container_internal::probe_seq") align 8 %agg.result, ptr noundef nonnull align 8 dereferenceable(32) %common, i64 noundef %hash) #0 comdat {
entry:
  %common.addr = alloca ptr, align 8
  %hash.addr = alloca i64, align 8
  store ptr %common, ptr %common.addr, align 8
  store i64 %hash, ptr %hash.addr, align 8
  %0 = load ptr, ptr %common.addr, align 8
  %call = call noundef ptr @_ZNK4absl18container_internal12CommonFields7controlEv(ptr noundef nonnull align 8 dereferenceable(32) %0)
  %1 = load ptr, ptr %common.addr, align 8
  %call1 = call noundef i64 @_ZNK4absl18container_internal12CommonFields8capacityEv(ptr noundef nonnull align 8 dereferenceable(32) %1)
  %2 = load i64, ptr %hash.addr, align 8
  call void @_ZN4absl18container_internal5probeEPKNS0_6ctrl_tEmm(ptr sret(%"class.absl::container_internal::probe_seq") align 8 %agg.result, ptr noundef %call, i64 noundef %call1, i64 noundef %2)
  ret void
}

; Function Attrs: mustprogress uwtable
define weak_odr dso_local { i64, i64 } @_ZN4absl18container_internal19find_first_non_fullIvEENS0_8FindInfoERKNS0_12CommonFieldsEm(ptr noundef nonnull align 8 dereferenceable(32) %common, i64 noundef %hash) #0 comdat {
entry:
  %retval = alloca %"struct.absl::container_internal::FindInfo", align 8
  %common.addr = alloca ptr, align 8
  %hash.addr = alloca i64, align 8
  %seq = alloca %"class.absl::container_internal::probe_seq", align 8
  %ctrl = alloca ptr, align 8
  %g = alloca %"struct.absl::container_internal::GroupSse2Impl", align 16
  %mask = alloca %"class.absl::container_internal::NonIterableBitMask", align 2
  store ptr %common, ptr %common.addr, align 8
  store i64 %hash, ptr %hash.addr, align 8
  %0 = load ptr, ptr %common.addr, align 8
  %1 = load i64, ptr %hash.addr, align 8
  call void @_ZN4absl18container_internal5probeERKNS0_12CommonFieldsEm(ptr sret(%"class.absl::container_internal::probe_seq") align 8 %seq, ptr noundef nonnull align 8 dereferenceable(32) %0, i64 noundef %1)
  %2 = load ptr, ptr %common.addr, align 8
  %call = call noundef ptr @_ZNK4absl18container_internal12CommonFields7controlEv(ptr noundef nonnull align 8 dereferenceable(32) %2)
  store ptr %call, ptr %ctrl, align 8
  br label %while.body

while.body:                                       ; preds = %if.end, %entry
  %3 = load ptr, ptr %ctrl, align 8
  %call1 = call noundef i64 @_ZNK4absl18container_internal9probe_seqILm16EE6offsetEv(ptr noundef nonnull align 8 dereferenceable(24) %seq)
  %add.ptr = getelementptr inbounds i8, ptr %3, i64 %call1
  call void @_ZN4absl18container_internal13GroupSse2ImplC2EPKNS0_6ctrl_tE(ptr noundef nonnull align 16 dereferenceable(16) %g, ptr noundef %add.ptr)
  %call2 = call i16 @_ZNK4absl18container_internal13GroupSse2Impl18MaskEmptyOrDeletedEv(ptr noundef nonnull align 16 dereferenceable(16) %g)
  %coerce.dive = getelementptr inbounds %"class.absl::container_internal::NonIterableBitMask", ptr %mask, i32 0, i32 0
  store i16 %call2, ptr %coerce.dive, align 2
  %call3 = call noundef zeroext i1 @_ZNK4absl18container_internal18NonIterableBitMaskItLi16ELi0EEcvbEv(ptr noundef nonnull align 2 dereferenceable(2) %mask)
  br i1 %call3, label %if.then, label %if.end

if.then:                                          ; preds = %while.body
  %offset = getelementptr inbounds %"struct.absl::container_internal::FindInfo", ptr %retval, i32 0, i32 0
  %call4 = call noundef i32 @_ZNK4absl18container_internal18NonIterableBitMaskItLi16ELi0EE12LowestBitSetEv(ptr noundef nonnull align 2 dereferenceable(2) %mask)
  %conv = zext i32 %call4 to i64
  %call5 = call noundef i64 @_ZNK4absl18container_internal9probe_seqILm16EE6offsetEm(ptr noundef nonnull align 8 dereferenceable(24) %seq, i64 noundef %conv)
  store i64 %call5, ptr %offset, align 8
  %probe_length = getelementptr inbounds %"struct.absl::container_internal::FindInfo", ptr %retval, i32 0, i32 1
  %call6 = call noundef i64 @_ZNK4absl18container_internal9probe_seqILm16EE5indexEv(ptr noundef nonnull align 8 dereferenceable(24) %seq)
  store i64 %call6, ptr %probe_length, align 8
  %4 = load { i64, i64 }, ptr %retval, align 8
  ret { i64, i64 } %4

if.end:                                           ; preds = %while.body
  call void @_ZN4absl18container_internal9probe_seqILm16EE4nextEv(ptr noundef nonnull align 8 dereferenceable(24) %seq)
  br label %while.body, !llvm.loop !5
}

; Function Attrs: mustprogress uwtable
define dso_local { i64, i64 } @_ZN4absl18container_internal29find_first_non_full_outoflineERKNS0_12CommonFieldsEm(ptr noundef nonnull align 8 dereferenceable(32) %common, i64 noundef %hash) #0 {
entry:
  %retval = alloca %"struct.absl::container_internal::FindInfo", align 8
  %common.addr = alloca ptr, align 8
  %hash.addr = alloca i64, align 8
  store ptr %common, ptr %common.addr, align 8
  store i64 %hash, ptr %hash.addr, align 8
  %0 = load ptr, ptr %common.addr, align 8
  %1 = load i64, ptr %hash.addr, align 8
  %call = call { i64, i64 } @_ZN4absl18container_internal19find_first_non_fullIvEENS0_8FindInfoERKNS0_12CommonFieldsEm(ptr noundef nonnull align 8 dereferenceable(32) %0, i64 noundef %1)
  %2 = getelementptr inbounds { i64, i64 }, ptr %retval, i32 0, i32 0
  %3 = extractvalue { i64, i64 } %call, 0
  store i64 %3, ptr %2, align 8
  %4 = getelementptr inbounds { i64, i64 }, ptr %retval, i32 0, i32 1
  %5 = extractvalue { i64, i64 } %call, 1
  store i64 %5, ptr %4, align 8
  %6 = load { i64, i64 }, ptr %retval, align 8
  ret { i64, i64 } %6
}