; Function Attrs: mustprogress nofree norecurse nosync nounwind willreturn memory(read, inaccessiblemem: none) uwtable
define dso_local { i64, i64 } @_ZN4absl18container_internal29find_first_non_full_outoflineERKNS0_12CommonFieldsEm(ptr noundef nonnull readonly align 8 captures(none) dereferenceable(32) %common, i64 noundef %hash) local_unnamed_addr #6 personality ptr @__gxx_personality_v0 {
entry:
  %0 = load ptr, ptr %common, align 8, !noalias !11
  %capacity_.i.i.i = getelementptr inbounds nuw i8, ptr %common, i64 16
  %1 = load i64, ptr %capacity_.i.i.i, align 8, !noalias !11
  %shr.i.i.i.i = lshr i64 %hash, 7
  %2 = ptrtoint ptr %0 to i64
  %shr.i.i.i.i.i = lshr i64 %2, 12
  %xor.i.i.i.i = xor i64 %shr.i.i.i.i.i, %shr.i.i.i.i
  %and.i.i.i.i = and i64 %xor.i.i.i.i, %1
  %add.ptr12.i = getelementptr inbounds nuw i8, ptr %0, i64 %and.i.i.i.i
  %3 = load <16 x i8>, ptr %add.ptr12.i, align 1
  %cmp.i.i.i13.i = icmp slt <16 x i8> %3, splat (i8 -1)
  %4 = bitcast <16 x i1> %cmp.i.i.i13.i to i16
  %cmp.i.not14.i = icmp eq i16 %4, 0
  br i1 %cmp.i.not14.i, label %if.end.i, label %_ZN4absl18container_internal19find_first_non_fullIvEENS0_8FindInfoERKNS0_12CommonFieldsEm.exit

if.end.i:                                         ; preds = %entry, %if.end.i
  %seq.sroa.8.016.i = phi i64 [ %add.i4.i, %if.end.i ], [ 0, %entry ]
  %seq.sroa.3.015.i = phi i64 [ %and.i6.i, %if.end.i ], [ %and.i.i.i.i, %entry ]
  %add.i4.i = add i64 %seq.sroa.8.016.i, 16
  %add3.i.i = add i64 %add.i4.i, %seq.sroa.3.015.i
  %and.i6.i = and i64 %add3.i.i, %1
  %add.ptr.i = getelementptr inbounds i8, ptr %0, i64 %and.i6.i
  %5 = load <16 x i8>, ptr %add.ptr.i, align 1
  %cmp.i.i.i.i = icmp slt <16 x i8> %5, splat (i8 -1)
  %6 = bitcast <16 x i1> %cmp.i.i.i.i to i16
  %cmp.i.not.i = icmp eq i16 %6, 0
  br i1 %cmp.i.not.i, label %if.end.i, label %_ZN4absl18container_internal19find_first_non_fullIvEENS0_8FindInfoERKNS0_12CommonFieldsEm.exit, !llvm.loop !8

_ZN4absl18container_internal19find_first_non_fullIvEENS0_8FindInfoERKNS0_12CommonFieldsEm.exit: ; preds = %if.end.i, %entry
  %seq.sroa.3.0.lcssa.i = phi i64 [ %and.i.i.i.i, %entry ], [ %and.i6.i, %if.end.i ]
  %seq.sroa.8.0.lcssa.i = phi i64 [ 0, %entry ], [ %add.i4.i, %if.end.i ]
  %.lcssa.i = phi i16 [ %4, %entry ], [ %6, %if.end.i ]
  %7 = tail call range(i16 0, 17) i16 @llvm.cttz.i16(i16 %.lcssa.i, i1 true)
  %conv.i = zext nneg i16 %7 to i64
  %add.i.i = add i64 %seq.sroa.3.0.lcssa.i, %conv.i
  %and.i.i = and i64 %add.i.i, %1
  %.fca.0.insert.i = insertvalue { i64, i64 } poison, i64 %and.i.i, 0
  %.fca.1.insert.i = insertvalue { i64, i64 } %.fca.0.insert.i, i64 %seq.sroa.8.0.lcssa.i, 1
  ret { i64, i64 } %.fca.1.insert.i
}